(dp0
I1
S'Egyptian cat'
p1
sI2
S'reel'
p2
sI3
S'volleyball'
p3
sI4
S'rocking chair, rocker'
p4
sI5
S'lemon'
p5
sI6
S'bullfrog, Rana catesbeiana'
p6
sI7
S'basketball'
p7
sI8
S'cliff, drop, drop-off'
p8
sI9
S'espresso'
p9
sI10
S"plunger, plumber's helper"
p10
sI11
S'parking meter'
p11
sI12
S'German shepherd, German shepherd dog, German police dog, alsatian'
p12
sI13
S'dining table, board'
p13
sI14
S'monarch, monarch butterfly, milkweed butterfly, Danaus plexippus'
p14
sI15
S'brown bear, bruin, Ursus arctos'
p15
sI16
S'school bus'
p16
sI17
S'pizza, pizza pie'
p17
sI18
S'guinea pig, Cavia cobaya'
p18
sI19
S'umbrella'
p19
sI20
S'organ, pipe organ'
p20
sI21
S'oboe, hautboy, hautbois'
p21
sI22
S'maypole'
p22
sI23
S'goldfish, Carassius auratus'
p23
sI24
S'potpie'
p24
sI25
S'hourglass'
p25
sI26
S'seashore, coast, seacoast, sea-coast'
p26
sI27
S'computer keyboard, keypad'
p27
sI28
S'Arabian camel, dromedary, Camelus dromedarius'
p28
sI29
S'ice cream, icecream'
p29
sI30
S'nail'
p30
sI31
S'space heater'
p31
sI32
S'cardigan'
p32
sI33
S'baboon'
p33
sI34
S'snail'
p34
sI35
S'coral reef'
p35
sI36
S'albatross, mollymawk'
p36
sI37
S"spider web, spider's web"
p37
sI38
S'sea cucumber, holothurian'
p38
sI39
S'backpack, back pack, knapsack, packsack, rucksack, haversack'
p39
sI40
S'Labrador retriever'
p40
sI41
S'pretzel'
p41
sI42
S'king penguin, Aptenodytes patagonica'
p42
sI43
S'sulphur butterfly, sulfur butterfly'
p43
sI44
S'tarantula'
p44
sI45
S'lesser panda, red panda, panda, bear cat, cat bear, Ailurus fulgens'
p45
sI46
S'pop bottle, soda bottle'
p46
sI47
S'banana'
p47
sI48
S'sock'
p48
sI49
S'cockroach, roach'
p49
sI50
S'projectile, missile'
p50
sI51
S'beer bottle'
p51
sI52
S'mantis, mantid'
p52
sI53
S'freight car'
p53
sI54
S'guacamole'
p54
sI55
S'remote control, remote'
p55
sI56
S'European fire salamander, Salamandra salamandra'
p56
sI57
S'lakeside, lakeshore'
p57
sI58
S'chimpanzee, chimp, Pan troglodytes'
p58
sI59
S'pay-phone, pay-station'
p59
sI60
S'fur coat'
p60
sI61
S'alp'
p61
sI62
S'lampshade, lamp shade'
p62
sI63
S'torch'
p63
sI64
S'abacus'
p64
sI65
S'moving van'
p65
sI66
S'barrel, cask'
p66
sI67
S'tabby, tabby cat'
p67
sI68
S'goose'
p68
sI69
S'koala, koala bear, kangaroo bear, native bear, Phascolarctos cinereus'
p69
sI70
S'bullet train, bullet'
p70
sI71
S'CD player'
p71
sI72
S'teapot'
p72
sI73
S'birdhouse'
p73
sI74
S'gazelle'
p74
sI75
S"academic gown, academic robe, judge's robe"
p75
sI76
S'tractor'
p76
sI77
S'ladybug, ladybeetle, lady beetle, ladybird, ladybird beetle'
p77
sI78
S'miniskirt, mini'
p78
sI79
S'golden retriever'
p79
sI80
S'triumphal arch'
p80
sI81
S'cannon'
p81
sI82
S'neck brace'
p82
sI83
S'sombrero'
p83
sI84
S'gasmask, respirator, gas helmet'
p84
sI85
S'candle, taper, wax light'
p85
sI86
S'desk'
p86
sI87
S'frying pan, frypan, skillet'
p87
sI88
S'bee'
p88
sI89
S'dam, dike, dyke'
p89
sI90
S'spiny lobster, langouste, rock lobster, crawfish, crayfish, sea crawfish'
p90
sI91
S'police van, police wagon, paddy wagon, patrol wagon, wagon, black Maria'
p91
sI92
S'iPod'
p92
sI93
S'punching bag, punch bag, punching ball, punchball'
p93
sI94
S'beacon, lighthouse, beacon light, pharos'
p94
sI95
S'jellyfish'
p95
sI96
S'wok'
p96
sI97
S"potter's wheel"
p97
sI98
S'sandal'
p98
sI99
S'pill bottle'
p99
sI100
S'butcher shop, meat market'
p100
sI101
S'slug'
p101
sI102
S'hog, pig, grunter, squealer, Sus scrofa'
p102
sI103
S'cougar, puma, catamount, mountain lion, painter, panther, Felis concolor'
p103
sI104
S'crane'
p104
sI105
S'vestment'
p105
sI106
S"dragonfly, darning needle, devil's darning needle, sewing needle, snake feeder, snake doctor, mosquito hawk, skeeter hawk"
p106
sI107
S'cash machine, cash dispenser, automated teller machine, automatic teller machine, automated teller, automatic teller, ATM'
p107
sI108
S'mushroom'
p108
sI109
S'jinrikisha, ricksha, rickshaw'
p109
sI110
S'water tower'
p110
sI111
S'chest'
p111
sI112
S'snorkel'
p112
sI113
S'sunglasses, dark glasses, shades'
p113
sI114
S'fly'
p114
sI115
S'limousine, limo'
p115
sI116
S'black stork, Ciconia nigra'
p116
sI117
S'dugong, Dugong dugon'
p117
sI118
S'sports car, sport car'
p118
sI119
S'water jug'
p119
sI120
S'suspension bridge'
p120
sI121
S'ox'
p121
sI122
S'ice lolly, lolly, lollipop, popsicle'
p122
sI123
S'turnstile'
p123
sI124
S'Christmas stocking'
p124
sI125
S'broom'
p125
sI126
S'scorpion'
p126
sI127
S'wooden spoon'
p127
sI128
S'picket fence, paling'
p128
sI129
S'rugby ball'
p129
sI130
S'sewing machine'
p130
sI131
S'steel arch bridge'
p131
sI132
S'Persian cat'
p132
sI133
S'refrigerator, icebox'
p133
sI134
S'barn'
p134
sI135
S'apron'
p135
sI136
S'Yorkshire terrier'
p136
sI137
S'swimming trunks, bathing trunks'
p137
sI138
S'stopwatch, stop watch'
p138
sI139
S'lawn mower, mower'
p139
sI140
S'thatch, thatched roof'
p140
sI141
S'fountain'
p141
sI142
S'black widow, Latrodectus mactans'
p142
sI143
S'bikini, two-piece'
p143
sI144
S'plate'
p144
sI145
S'teddy, teddy bear'
p145
sI146
S'barbershop'
p146
sI147
S'confectionery, confectionary, candy store'
p147
sI148
S'beach wagon, station wagon, wagon, estate car, beach waggon, station waggon, waggon'
p148
sI149
S'scoreboard'
p149
sI150
S'orange'
p150
sI151
S'flagpole, flagstaff'
p151
sI152
S'American lobster, Northern lobster, Maine lobster, Homarus americanus'
p152
sI153
S'trolleybus, trolley coach, trackless trolley'
p153
sI154
S'drumstick'
p154
sI155
S'dumbbell'
p155
sI156
S'brass, memorial tablet, plaque'
p156
sI157
S'bow tie, bow-tie, bowtie'
p157
sI158
S'convertible'
p158
sI159
S'bighorn, bighorn sheep, cimarron, Rocky Mountain bighorn, Rocky Mountain sheep, Ovis canadensis'
p159
sI160
S'orangutan, orang, orangutang, Pongo pygmaeus'
p160
sI161
S'American alligator, Alligator mississipiensis'
p161
sI162
S'centipede'
p162
sI163
S'syringe'
p163
sI164
S'go-kart'
p164
sI165
S'brain coral'
p165
sI166
S'sea slug, nudibranch'
p166
sI167
S'cliff dwelling'
p167
sI168
S'mashed potato'
p168
sI169
S'viaduct'
p169
sI170
S'military uniform'
p170
sI171
S'pomegranate'
p171
sI172
S'chain'
p172
sI173
S'kimono'
p173
sI174
S'comic book'
p174
sI175
S'trilobite'
p175
sI176
S'bison'
p176
sI177
S'pole'
p177
sI178
S'boa constrictor, Constrictor constrictor'
p178
sI179
S'poncho'
p179
sI180
S'bathtub, bathing tub, bath, tub'
p180
sI181
S'grasshopper, hopper'
p181
sI182
S'walking stick, walkingstick, stick insect'
p182
sI183
S'Chihuahua'
p183
sI184
S'tailed frog, bell toad, ribbed toad, tailed toad, Ascaphus trui'
p184
sI185
S'lion, king of beasts, Panthera leo'
p185
sI186
S'altar'
p186
sI187
S'obelisk'
p187
sI188
S'beaker'
p188
sI189
S'bell pepper'
p189
sI190
S'bannister, banister, balustrade, balusters, handrail'
p190
sI191
S'bucket, pail'
p191
sI192
S'magnetic compass'
p192
sI193
S'meat loaf, meatloaf'
p193
sI194
S'gondola'
p194
sI195
S'standard poodle'
p195
sI196
S'acorn'
p196
sI197
S'lifeboat'
p197
sI198
S'binoculars, field glasses, opera glasses'
p198
sI199
S'cauliflower'
p199
sI200
S'African elephant, Loxodonta africana'
p200
s.